((iSOAPpy.Types
structType
p0
(dp1
S'_type'
p2
S'struct'
p3
sS'_ns'
p4
VDebbugs/SOAP
p5
sS'_name'
p6
Vs-gensym3
p7
sVitem
p8
(lp9
(iSOAPpy.Types
structType
p10
(dp11
g2
S'struct'
p12
sg4
VDebbugs/SOAP
p13
sVvalue
p14
(iSOAPpy.Types
structType
p15
(dp16
S'_data'
p17
NsVfixed_versions
p18
(iSOAPpy.Types
arrayType
p19
(dp20
g2
S'array'
p21
sS'_poss'
p22
(lp23
I0
asg4
VDebbugs/SOAP
p24
sS'_dims'
p25
(lp26
I0
asS'_elemsname'
p27
S'item'
p28
sS'_full'
p29
I0
sg6
g18
sS'_rank'
p30
NsS'_typed'
p31
I0
sS'_cache'
p32
Nsg17
NsS'_posstate'
p33
I-1
sS'data'
p34
(lp35
sS'_keyord'
p36
(lp37
sS'_attrs'
p38
(dp39
sbsVblockedby
p40
S''
p41
sVowner
p42
g41
sVdone
p43
g41
sVunarchived
p44
g41
sVkeywords
p45
S'fixed-upstream'
p46
sg32
NsVid
p47
I460294
sVsubject
p48
S'nautilus: sometimes opens root (/) when selecting an unmounted drive in computer:///'
p49
sVforwarded
p50
S'http://bugzilla.gnome.org/show_bug.cgi?id=512071'
p51
sVmsgid
p52
S'<20080111205535.GA26825@konishi.dowland>'
p53
sVsource
p54
S'unknown'
p55
sVlocation
p56
S'db-h'
p57
sg36
(lp58
g54
aVfound_versions
p59
ag43
aVblocks
p60
aVdate
p61
aVfixed
p62
ag18
aVmergedwith
p63
aVfound
p64
ag44
ag40
ag45
ag52
ag47
ag50
aVseverity
p65
ag42
aVlog_modified
p66
ag56
ag48
aVoriginator
p67
aVpending
p68
aVtags
p69
aVfixed_date
p70
aVpackage
p71
aVfound_date
p72
asg68
S'forwarded'
p73
sg38
(dp74
sg67
S'Jon Dowland <jon+bts@alcopop.org>'
p75
sg2
S'struct'
p76
sg60
g41
sg69
S'fixed-upstream'
p77
sg31
I1
sg61
I1200085058
sg63
g41
sg72
(iSOAPpy.Types
arrayType
p78
(dp79
g2
S'array'
p80
sg22
(lp81
I0
asg4
VDebbugs/SOAP
p82
sg25
(lp83
I0
asg27
g28
sg29
I0
sg6
g72
sg30
Nsg31
I0
sg32
Nsg17
Nsg33
I-1
sg34
(lp84
sg36
(lp85
sg38
(dp86
sbsg65
S'minor'
p87
sg71
S'nautilus'
p88
sg6
g14
sg66
I1210104824
sg70
(iSOAPpy.Types
arrayType
p89
(dp90
g2
S'array'
p91
sg22
(lp92
I0
asg4
VDebbugs/SOAP
p93
sg25
(lp94
I0
asg27
g28
sg29
I0
sg6
g70
sg30
Nsg31
I0
sg32
Nsg17
Nsg33
I-1
sg34
(lp95
sg36
(lp96
sg38
(dp97
sbsg59
(iSOAPpy.Types
typedArrayType
p98
(dp99
g2
(NVstring
p100
tp101
sg22
(lp102
I1
asg4
VDebbugs/SOAP
p103
sg25
(lp104
I1
asg27
Vitem
p105
sg29
I0
sg6
g59
sg30
NsS'_complexType'
p106
I0
sg31
I1
sg32
Nsg17
Nsg33
I0
sg34
(lp107
S'nautilus/2.20.0-2'
p108
asg36
(lp109
sg38
(dp110
sbsg4
VDebbugs/SOAP
p111
sg64
(iSOAPpy.Types
structType
p112
(dp113
g2
S'struct'
p114
sg4
VDebbugs/SOAP
p115
sg6
g64
sVitem
p116
(iSOAPpy.Types
structType
p117
(dp118
g2
S'struct'
p119
sg4
VDebbugs/SOAP
p120
sVvalue
p121
Nsg6
g116
sVkey
p122
S'nautilus/2.20.0-2'
p123
sg31
I1
sg32
Nsg17
Nsg36
(lp124
g122
ag121
asg38
(dp125
sbsg31
I1
sg32
Nsg17
Nsg36
(lp126
g116
asg38
(dp127
sbsg62
g41
sbsg6
g8
sVkey
p128
I460294
sg31
I1
sg32
Nsg17
Nsg36
(lp129
g128
ag14
asg38
(dp130
sba(iSOAPpy.Types
structType
p131
(dp132
g2
S'struct'
p133
sg4
VDebbugs/SOAP
p134
sVvalue
p135
(iSOAPpy.Types
structType
p136
(dp137
g17
NsVfixed_versions
p138
(iSOAPpy.Types
arrayType
p139
(dp140
g2
S'array'
p141
sg22
(lp142
I0
asg4
VDebbugs/SOAP
p143
sg25
(lp144
I0
asg27
g28
sg29
I0
sg6
g138
sg30
Nsg31
I0
sg32
Nsg17
Nsg33
I-1
sg34
(lp145
sg36
(lp146
sg38
(dp147
sbsVblockedby
p148
g41
sVowner
p149
S'jon dowland <jon@alcopop.org>'
p150
sVdone
p151
g41
sVunarchived
p152
g41
sVkeywords
p153
g41
sg32
NsVid
p154
I354732
sVsubject
p155
S'ITP: omgifol -- python library for manipulating doom-style WAD files'
p156
sVforwarded
p157
g41
sVmsgid
p158
S'<20060228153037.GA306@anubis.ncl.ac.uk>'
p159
sVsource
p160
S'unknown'
p161
sVlocation
p162
S'db-h'
p163
sg36
(lp164
g160
aVfound_versions
p165
ag151
aVblocks
p166
aVdate
p167
aVfixed
p168
ag138
aVmergedwith
p169
aVfound
p170
ag152
ag148
ag153
ag158
ag154
ag157
aVseverity
p171
ag149
aVlog_modified
p172
ag162
ag155
aVoriginator
p173
aVpending
p174
aVtags
p175
aVfixed_date
p176
aVpackage
p177
aVfound_date
p178
asg174
S'pending'
p179
sg38
(dp180
sg173
S'jon+bts@alcopop.org'
p181
sg2
S'struct'
p182
sg166
g41
sg175
g41
sg31
I1
sg167
I1141141682
sg169
g41
sg178
(iSOAPpy.Types
arrayType
p183
(dp184
g2
S'array'
p185
sg22
(lp186
I0
asg4
VDebbugs/SOAP
p187
sg25
(lp188
I0
asg27
g28
sg29
I0
sg6
g178
sg30
Nsg31
I0
sg32
Nsg17
Nsg33
I-1
sg34
(lp189
sg36
(lp190
sg38
(dp191
sbsg171
S'wishlist'
p192
sg177
S'wnpp'
p193
sg6
g135
sg172
I1204571080
sg176
(iSOAPpy.Types
arrayType
p194
(dp195
g2
S'array'
p196
sg22
(lp197
I0
asg4
VDebbugs/SOAP
p198
sg25
(lp199
I0
asg27
g28
sg29
I0
sg6
g176
sg30
Nsg31
I0
sg32
Nsg17
Nsg33
I-1
sg34
(lp200
sg36
(lp201
sg38
(dp202
sbsg165
(iSOAPpy.Types
arrayType
p203
(dp204
g2
S'array'
p205
sg22
(lp206
I0
asg4
VDebbugs/SOAP
p207
sg25
(lp208
I0
asg27
g28
sg29
I0
sg6
g165
sg30
Nsg31
I0
sg32
Nsg17
Nsg33
I-1
sg34
(lp209
sg36
(lp210
sg38
(dp211
sbsg4
VDebbugs/SOAP
p212
sg170
g41
sg168
g41
sbsg6
Vitem
p213
sVkey
p214
I354732
sg31
I1
sg32
Nsg17
Nsg36
(lp215
g214
ag135
asg38
(dp216
sba(iSOAPpy.Types
structType
p217
(dp218
g2
S'struct'
p219
sg4
VDebbugs/SOAP
p220
sVvalue
p221
(iSOAPpy.Types
structType
p222
(dp223
g17
NsVfixed_versions
p224
(iSOAPpy.Types
arrayType
p225
(dp226
g2
S'array'
p227
sg22
(lp228
I0
asg4
VDebbugs/SOAP
p229
sg25
(lp230
I0
asg27
g28
sg29
I0
sg6
g224
sg30
Nsg31
I0
sg32
Nsg17
Nsg33
I-1
sg34
(lp231
sg36
(lp232
sg38
(dp233
sbsVblockedby
p234
g41
sVowner
p235
g41
sVdone
p236
g41
sVunarchived
p237
g41
sVkeywords
p238
g41
sg32
NsVid
p239
I404502
sVsubject
p240
S'gdm window not wide enough for all messages'
p241
sVforwarded
p242
g41
sVmsgid
p243
S'<20061225185153.GA654@kitenet.net>'
p244
sVsource
p245
S'unknown'
p246
sVlocation
p247
S'db-h'
p248
sg36
(lp249
g245
aVfound_versions
p250
ag236
aVblocks
p251
aVdate
p252
aVfixed
p253
ag224
aVmergedwith
p254
aVfound
p255
ag237
ag234
ag238
ag243
ag239
ag242
aVseverity
p256
ag235
aVlog_modified
p257
ag247
aVoriginator
p258
ag240
aVpending
p259
aVtags
p260
aVfixed_date
p261
aVpackage
p262
aVfound_date
p263
asg259
S'pending'
p264
sg38
(dp265
sg258
S'Joey Hess <joeyh@debian.org>'
p266
sg2
S'struct'
p267
sg251
g41
sg260
g41
sg31
I1
sg252
I1167073381
sg254
I407038
sg263
(iSOAPpy.Types
arrayType
p268
(dp269
g2
S'array'
p270
sg22
(lp271
I0
asg4
VDebbugs/SOAP
p272
sg25
(lp273
I0
asg27
g28
sg29
I0
sg6
g263
sg30
Nsg31
I0
sg32
Nsg17
Nsg33
I-1
sg34
(lp274
sg36
(lp275
sg38
(dp276
sbsg256
S'important'
p277
sg262
S'desktop-base'
p278
sg6
g221
sg257
I1170163097
sg261
(iSOAPpy.Types
arrayType
p279
(dp280
g2
S'array'
p281
sg22
(lp282
I0
asg4
VDebbugs/SOAP
p283
sg25
(lp284
I0
asg27
g28
sg29
I0
sg6
g261
sg30
Nsg31
I0
sg32
Nsg17
Nsg33
I-1
sg34
(lp285
sg36
(lp286
sg38
(dp287
sbsg250
(iSOAPpy.Types
typedArrayType
p288
(dp289
g2
(NVstring
p290
tp291
sg22
(lp292
I1
asg4
VDebbugs/SOAP
p293
sg25
(lp294
I1
asg27
Vitem
p295
sg29
I0
sg6
g250
sg30
Nsg106
I0
sg31
I1
sg32
Nsg17
Nsg33
I0
sg34
(lp296
S'desktop-base/4.0.0'
p297
asg36
(lp298
sg38
(dp299
sbsg4
VDebbugs/SOAP
p300
sg255
(iSOAPpy.Types
structType
p301
(dp302
g2
S'struct'
p303
sg4
VDebbugs/SOAP
p304
sg6
g255
sVitem
p305
(iSOAPpy.Types
structType
p306
(dp307
g2
S'struct'
p308
sg4
VDebbugs/SOAP
p309
sVvalue
p310
Nsg6
g305
sVkey
p311
S'desktop-base/4.0.0'
p312
sg31
I1
sg32
Nsg17
Nsg36
(lp313
g311
ag310
asg38
(dp314
sbsg31
I1
sg32
Nsg17
Nsg36
(lp315
g305
asg38
(dp316
sbsg253
g41
sbsg6
Vitem
p317
sVkey
p318
I404502
sg31
I1
sg32
Nsg17
Nsg36
(lp319
g318
ag221
asg38
(dp320
sbasg31
I1
sg32
Nsg17
Nsg36
(lp321
g8
asg38
(dp322
sb(iSOAPpy.Types
structType
p323
(dp324
g2
S'struct'
p325
sg4
VDebbugs/SOAP
p326
sg6
Vs-gensym3
p327
sVitem
p328
(lp329
(iSOAPpy.Types
structType
p330
(dp331
g2
S'struct'
p332
sg4
VDebbugs/SOAP
p333
sVvalue
p334
(iSOAPpy.Types
structType
p335
(dp336
g17
NsVfixed_versions
p337
(iSOAPpy.Types
arrayType
p338
(dp339
g2
S'array'
p340
sg22
(lp341
I0
asg4
VDebbugs/SOAP
p342
sg25
(lp343
I0
asg27
g28
sg29
I0
sg6
g337
sg30
Nsg31
I0
sg32
Nsg17
Nsg33
I-1
sg34
(lp344
sg36
(lp345
sg38
(dp346
sbsVblockedby
p347
g41
sVowner
p348
g41
sVdone
p349
g41
sVunarchived
p350
g41
sVkeywords
p351
S'fixed-upstream'
p352
sg32
NsVid
p353
I460294
sVsubject
p354
S'nautilus: sometimes opens root (/) when selecting an unmounted drive in computer:///'
p355
sVforwarded
p356
S'http://bugzilla.gnome.org/show_bug.cgi?id=512071'
p357
sVmsgid
p358
S'<20080111205535.GA26825@konishi.dowland>'
p359
sVsource
p360
S'unknown'
p361
sVlocation
p362
S'db-h'
p363
sg36
(lp364
g360
aVfound_versions
p365
ag349
aVblocks
p366
aVdate
p367
aVfixed
p368
ag337
aVmergedwith
p369
aVfound
p370
ag350
ag347
ag351
ag358
ag353
ag356
aVseverity
p371
ag348
aVlog_modified
p372
ag362
ag354
aVoriginator
p373
aVpending
p374
aVtags
p375
aVfixed_date
p376
aVpackage
p377
aVfound_date
p378
asg374
S'forwarded'
p379
sg38
(dp380
sg373
S'Jon Dowland <jon+bts@alcopop.org>'
p381
sg2
S'struct'
p382
sg366
g41
sg375
S'fixed-upstream'
p383
sg31
I1
sg367
I1200085058
sg369
g41
sg378
(iSOAPpy.Types
arrayType
p384
(dp385
g2
S'array'
p386
sg22
(lp387
I0
asg4
VDebbugs/SOAP
p388
sg25
(lp389
I0
asg27
g28
sg29
I0
sg6
g378
sg30
Nsg31
I0
sg32
Nsg17
Nsg33
I-1
sg34
(lp390
sg36
(lp391
sg38
(dp392
sbsg371
S'minor'
p393
sg377
S'nautilus'
p394
sg6
g334
sg372
I1210104824
sg376
(iSOAPpy.Types
arrayType
p395
(dp396
g2
S'array'
p397
sg22
(lp398
I0
asg4
VDebbugs/SOAP
p399
sg25
(lp400
I0
asg27
g28
sg29
I0
sg6
g376
sg30
Nsg31
I0
sg32
Nsg17
Nsg33
I-1
sg34
(lp401
sg36
(lp402
sg38
(dp403
sbsg365
(iSOAPpy.Types
typedArrayType
p404
(dp405
g2
(NVstring
p406
tp407
sg22
(lp408
I1
asg4
VDebbugs/SOAP
p409
sg25
(lp410
I1
asg27
Vitem
p411
sg29
I0
sg6
g365
sg30
Nsg106
I0
sg31
I1
sg32
Nsg17
Nsg33
I0
sg34
(lp412
S'nautilus/2.20.0-2'
p413
asg36
(lp414
sg38
(dp415
sbsg4
VDebbugs/SOAP
p416
sg370
(iSOAPpy.Types
structType
p417
(dp418
g2
S'struct'
p419
sg4
VDebbugs/SOAP
p420
sg6
g370
sVitem
p421
(iSOAPpy.Types
structType
p422
(dp423
g2
S'struct'
p424
sg4
VDebbugs/SOAP
p425
sVvalue
p426
Nsg6
g421
sVkey
p427
S'nautilus/2.20.0-2'
p428
sg31
I1
sg32
Nsg17
Nsg36
(lp429
g427
ag426
asg38
(dp430
sbsg31
I1
sg32
Nsg17
Nsg36
(lp431
g421
asg38
(dp432
sbsg368
g41
sbsg6
g328
sVkey
p433
I460294
sg31
I1
sg32
Nsg17
Nsg36
(lp434
g433
ag334
asg38
(dp435
sba(iSOAPpy.Types
structType
p436
(dp437
g2
S'struct'
p438
sg4
VDebbugs/SOAP
p439
sVvalue
p440
(iSOAPpy.Types
structType
p441
(dp442
g17
NsVfixed_versions
p443
(iSOAPpy.Types
arrayType
p444
(dp445
g2
S'array'
p446
sg22
(lp447
I0
asg4
VDebbugs/SOAP
p448
sg25
(lp449
I0
asg27
g28
sg29
I0
sg6
g443
sg30
Nsg31
I0
sg32
Nsg17
Nsg33
I-1
sg34
(lp450
sg36
(lp451
sg38
(dp452
sbsVblockedby
p453
g41
sVowner
p454
S'jon dowland <jon@alcopop.org>'
p455
sVdone
p456
g41
sVunarchived
p457
g41
sVkeywords
p458
g41
sg32
NsVid
p459
I354732
sVsubject
p460
S'ITP: omgifol -- python library for manipulating doom-style WAD files'
p461
sVforwarded
p462
g41
sVmsgid
p463
S'<20060228153037.GA306@anubis.ncl.ac.uk>'
p464
sVsource
p465
S'unknown'
p466
sVlocation
p467
S'db-h'
p468
sg36
(lp469
g465
aVfound_versions
p470
ag456
aVblocks
p471
aVdate
p472
aVfixed
p473
ag443
aVmergedwith
p474
aVfound
p475
ag457
ag453
ag458
ag463
ag459
ag462
aVseverity
p476
ag454
aVlog_modified
p477
ag467
ag460
aVoriginator
p478
aVpending
p479
aVtags
p480
aVfixed_date
p481
aVpackage
p482
aVfound_date
p483
asg479
S'pending'
p484
sg38
(dp485
sg478
S'jon+bts@alcopop.org'
p486
sg2
S'struct'
p487
sg471
g41
sg480
g41
sg31
I1
sg472
I1141141682
sg474
g41
sg483
(iSOAPpy.Types
arrayType
p488
(dp489
g2
S'array'
p490
sg22
(lp491
I0
asg4
VDebbugs/SOAP
p492
sg25
(lp493
I0
asg27
g28
sg29
I0
sg6
g483
sg30
Nsg31
I0
sg32
Nsg17
Nsg33
I-1
sg34
(lp494
sg36
(lp495
sg38
(dp496
sbsg476
S'wishlist'
p497
sg482
S'wnpp'
p498
sg6
g440
sg477
I1204571080
sg481
(iSOAPpy.Types
arrayType
p499
(dp500
g2
S'array'
p501
sg22
(lp502
I0
asg4
VDebbugs/SOAP
p503
sg25
(lp504
I0
asg27
g28
sg29
I0
sg6
g481
sg30
Nsg31
I0
sg32
Nsg17
Nsg33
I-1
sg34
(lp505
sg36
(lp506
sg38
(dp507
sbsg470
(iSOAPpy.Types
arrayType
p508
(dp509
g2
S'array'
p510
sg22
(lp511
I0
asg4
VDebbugs/SOAP
p512
sg25
(lp513
I0
asg27
g28
sg29
I0
sg6
g470
sg30
Nsg31
I0
sg32
Nsg17
Nsg33
I-1
sg34
(lp514
sg36
(lp515
sg38
(dp516
sbsg4
VDebbugs/SOAP
p517
sg475
g41
sg473
g41
sbsg6
Vitem
p518
sVkey
p519
I354732
sg31
I1
sg32
Nsg17
Nsg36
(lp520
g519
ag440
asg38
(dp521
sba(iSOAPpy.Types
structType
p522
(dp523
g2
S'struct'
p524
sg4
VDebbugs/SOAP
p525
sVvalue
p526
(iSOAPpy.Types
structType
p527
(dp528
g17
NsVfixed_versions
p529
(iSOAPpy.Types
arrayType
p530
(dp531
g2
S'array'
p532
sg22
(lp533
I0
asg4
VDebbugs/SOAP
p534
sg25
(lp535
I0
asg27
g28
sg29
I0
sg6
g529
sg30
Nsg31
I0
sg32
Nsg17
Nsg33
I-1
sg34
(lp536
sg36
(lp537
sg38
(dp538
sbsVblockedby
p539
g41
sVowner
p540
g41
sVdone
p541
g41
sVunarchived
p542
g41
sVkeywords
p543
g41
sg32
NsVid
p544
I404502
sVsubject
p545
S'gdm window not wide enough for all messages'
p546
sVforwarded
p547
g41
sVmsgid
p548
S'<20061225185153.GA654@kitenet.net>'
p549
sVsource
p550
S'unknown'
p551
sVlocation
p552
S'db-h'
p553
sg36
(lp554
g550
aVfound_versions
p555
ag541
aVblocks
p556
aVdate
p557
aVfixed
p558
ag529
aVmergedwith
p559
aVfound
p560
ag542
ag539
ag543
ag548
ag544
ag547
aVseverity
p561
ag540
aVlog_modified
p562
ag552
aVoriginator
p563
ag545
aVpending
p564
aVtags
p565
aVfixed_date
p566
aVpackage
p567
aVfound_date
p568
asg564
S'pending'
p569
sg38
(dp570
sg563
S'Joey Hess <joeyh@debian.org>'
p571
sg2
S'struct'
p572
sg556
g41
sg565
g41
sg31
I1
sg557
I1167073381
sg559
I407038
sg568
(iSOAPpy.Types
arrayType
p573
(dp574
g2
S'array'
p575
sg22
(lp576
I0
asg4
VDebbugs/SOAP
p577
sg25
(lp578
I0
asg27
g28
sg29
I0
sg6
g568
sg30
Nsg31
I0
sg32
Nsg17
Nsg33
I-1
sg34
(lp579
sg36
(lp580
sg38
(dp581
sbsg561
S'important'
p582
sg567
S'desktop-base'
p583
sg6
g526
sg562
I1170163097
sg566
(iSOAPpy.Types
arrayType
p584
(dp585
g2
S'array'
p586
sg22
(lp587
I0
asg4
VDebbugs/SOAP
p588
sg25
(lp589
I0
asg27
g28
sg29
I0
sg6
g566
sg30
Nsg31
I0
sg32
Nsg17
Nsg33
I-1
sg34
(lp590
sg36
(lp591
sg38
(dp592
sbsg555
(iSOAPpy.Types
typedArrayType
p593
(dp594
g2
(NVstring
p595
tp596
sg22
(lp597
I1
asg4
VDebbugs/SOAP
p598
sg25
(lp599
I1
asg27
Vitem
p600
sg29
I0
sg6
g555
sg30
Nsg106
I0
sg31
I1
sg32
Nsg17
Nsg33
I0
sg34
(lp601
S'desktop-base/4.0.0'
p602
asg36
(lp603
sg38
(dp604
sbsg4
VDebbugs/SOAP
p605
sg560
(iSOAPpy.Types
structType
p606
(dp607
g2
S'struct'
p608
sg4
VDebbugs/SOAP
p609
sg6
g560
sVitem
p610
(iSOAPpy.Types
structType
p611
(dp612
g2
S'struct'
p613
sg4
VDebbugs/SOAP
p614
sVvalue
p615
Nsg6
g610
sVkey
p616
S'desktop-base/4.0.0'
p617
sg31
I1
sg32
Nsg17
Nsg36
(lp618
g616
ag615
asg38
(dp619
sbsg31
I1
sg32
Nsg17
Nsg36
(lp620
g610
asg38
(dp621
sbsg558
g41
sbsg6
Vitem
p622
sVkey
p623
I404502
sg31
I1
sg32
Nsg17
Nsg36
(lp624
g623
ag526
asg38
(dp625
sbasg31
I1
sg32
Nsg17
Nsg36
(lp626
g328
asg38
(dp627
sbtp628
.